; ModuleID = '25/527.cpp'
source_filename = "25/527.cpp"
target datalayout = "e-m:e-p270:32:32-p271:32:32-p272:64:64-i64:64-f80:128-n8:16:32:64-S128"
target triple = "x86_64-pc-linux-gnu"

%"class.std::ios_base::Init" = type { i8 }
%"class.std::basic_istream" = type { i32 (...)**, i64, %"class.std::basic_ios" }
%"class.std::basic_ios" = type { %"class.std::ios_base", %"class.std::basic_ostream"*, i8, i8, %"class.std::basic_streambuf"*, %"class.std::ctype"*, %"class.std::num_put"*, %"class.std::num_get"* }
%"class.std::ios_base" = type { i32 (...)**, i64, i64, i32, i32, i32, %"struct.std::ios_base::_Callback_list"*, %"struct.std::ios_base::_Words", [8 x %"struct.std::ios_base::_Words"], i32, %"struct.std::ios_base::_Words"*, %"class.std::locale" }
%"struct.std::ios_base::_Callback_list" = type { %"struct.std::ios_base::_Callback_list"*, void (i32, %"class.std::ios_base"*, i32)*, i32, i32 }
%"struct.std::ios_base::_Words" = type { i8*, i64 }
%"class.std::locale" = type { %"class.std::locale::_Impl"* }
%"class.std::locale::_Impl" = type { i32, %"class.std::locale::facet"**, i64, %"class.std::locale::facet"**, i8** }
%"class.std::locale::facet" = type <{ i32 (...)**, i32, [4 x i8] }>
%"class.std::basic_ostream" = type { i32 (...)**, %"class.std::basic_ios" }
%"class.std::basic_streambuf" = type { i32 (...)**, i8*, i8*, i8*, i8*, i8*, i8*, %"class.std::locale" }
%"class.std::ctype" = type <{ %"class.std::locale::facet.base", [4 x i8], %struct.__locale_struct*, i8, [7 x i8], i32*, i32*, i16*, i8, [256 x i8], [256 x i8], i8, [6 x i8] }>
%"class.std::locale::facet.base" = type <{ i32 (...)**, i32 }>
%struct.__locale_struct = type { [13 x %struct.__locale_data*], i16*, i32*, i32*, [13 x i8*] }
%struct.__locale_data = type opaque
%"class.std::num_put" = type { %"class.std::locale::facet.base", [4 x i8] }
%"class.std::num_get" = type { %"class.std::locale::facet.base", [4 x i8] }

@_ZStL8__ioinit = internal global %"class.std::ios_base::Init" zeroinitializer, align 1
@__dso_handle = external hidden global i8
@a = dso_local global [105 x [105 x i32]] zeroinitializer, align 16
@_ZSt3cin = external dso_local global %"class.std::basic_istream", align 8
@.str = private unnamed_addr constant [3 x i8] c"%d\00", align 1
@.str.1 = private unnamed_addr constant [3 x i8] c"1\0A\00", align 1
@llvm.global_ctors = appending global [1 x { i32, void ()*, i8* }] [{ i32, void ()*, i8* } { i32 65535, void ()* @_GLOBAL__sub_I_527.cpp, i8* null }]

; Function Attrs: noinline uwtable
define internal void @__cxx_global_var_init() #0 section ".text.startup" {
  call void @_ZNSt8ios_base4InitC1Ev(%"class.std::ios_base::Init"* @_ZStL8__ioinit)
  %1 = call i32 @__cxa_atexit(void (i8*)* bitcast (void (%"class.std::ios_base::Init"*)* @_ZNSt8ios_base4InitD1Ev to void (i8*)*), i8* getelementptr inbounds (%"class.std::ios_base::Init", %"class.std::ios_base::Init"* @_ZStL8__ioinit, i32 0, i32 0), i8* @__dso_handle) #3
  ret void
}

declare dso_local void @_ZNSt8ios_base4InitC1Ev(%"class.std::ios_base::Init"*) unnamed_addr #1

; Function Attrs: nounwind
declare dso_local void @_ZNSt8ios_base4InitD1Ev(%"class.std::ios_base::Init"*) unnamed_addr #2

; Function Attrs: nounwind
declare dso_local i32 @__cxa_atexit(void (i8*)*, i8*, i8*) #3

; Function Attrs: noinline norecurse uwtable
define dso_local i32 @main() #4 {
  %1 = alloca i32, align 4
  %2 = alloca i32, align 4
  %3 = alloca i32, align 4
  %4 = alloca i32, align 4
  %5 = alloca i32, align 4
  %6 = alloca i32, align 4
  store i32 0, i32* %1, align 4
  store i32 0, i32* %3, align 4
  %7 = call dereferenceable(280) %"class.std::basic_istream"* @_ZNSirsERi(%"class.std::basic_istream"* @_ZSt3cin, i32* dereferenceable(4) %2)
  store i32 2, i32* getelementptr inbounds ([105 x [105 x i32]], [105 x [105 x i32]]* @a, i64 0, i64 1, i64 1), align 4
  store i32 1, i32* %4, align 4
  br label %8

8:                                                ; preds = %76, %0
  %9 = load i32, i32* %4, align 4
  %10 = load i32, i32* %2, align 4
  %11 = sub nsw i32 %10, 1
  %12 = icmp sle i32 %9, %11
  br i1 %12, label %13, label %79

13:                                               ; preds = %8
  store i32 1, i32* %5, align 4
  br label %14

14:                                               ; preds = %72, %13
  %15 = load i32, i32* %5, align 4
  %16 = load i32, i32* %2, align 4
  %17 = icmp sle i32 %15, %16
  br i1 %17, label %18, label %75

18:                                               ; preds = %14
  %19 = load i32, i32* %4, align 4
  %20 = sext i32 %19 to i64
  %21 = getelementptr inbounds [105 x [105 x i32]], [105 x [105 x i32]]* @a, i64 0, i64 %20
  %22 = load i32, i32* %5, align 4
  %23 = sext i32 %22 to i64
  %24 = getelementptr inbounds [105 x i32], [105 x i32]* %21, i64 0, i64 %23
  %25 = load i32, i32* %24, align 4
  %26 = mul nsw i32 %25, 2
  %27 = load i32, i32* %4, align 4
  %28 = add nsw i32 %27, 1
  %29 = sext i32 %28 to i64
  %30 = getelementptr inbounds [105 x [105 x i32]], [105 x [105 x i32]]* @a, i64 0, i64 %29
  %31 = load i32, i32* %5, align 4
  %32 = sext i32 %31 to i64
  %33 = getelementptr inbounds [105 x i32], [105 x i32]* %30, i64 0, i64 %32
  %34 = load i32, i32* %33, align 4
  %35 = add nsw i32 %26, %34
  %36 = srem i32 %35, 10
  %37 = load i32, i32* %4, align 4
  %38 = add nsw i32 %37, 1
  %39 = sext i32 %38 to i64
  %40 = getelementptr inbounds [105 x [105 x i32]], [105 x [105 x i32]]* @a, i64 0, i64 %39
  %41 = load i32, i32* %5, align 4
  %42 = sext i32 %41 to i64
  %43 = getelementptr inbounds [105 x i32], [105 x i32]* %40, i64 0, i64 %42
  store i32 %36, i32* %43, align 4
  %44 = load i32, i32* %4, align 4
  %45 = sext i32 %44 to i64
  %46 = getelementptr inbounds [105 x [105 x i32]], [105 x [105 x i32]]* @a, i64 0, i64 %45
  %47 = load i32, i32* %5, align 4
  %48 = sext i32 %47 to i64
  %49 = getelementptr inbounds [105 x i32], [105 x i32]* %46, i64 0, i64 %48
  %50 = load i32, i32* %49, align 4
  %51 = mul nsw i32 %50, 2
  %52 = sdiv i32 %51, 10
  %53 = load i32, i32* %4, align 4
  %54 = add nsw i32 %53, 1
  %55 = sext i32 %54 to i64
  %56 = getelementptr inbounds [105 x [105 x i32]], [105 x [105 x i32]]* @a, i64 0, i64 %55
  %57 = load i32, i32* %5, align 4
  %58 = add nsw i32 %57, 1
  %59 = sext i32 %58 to i64
  %60 = getelementptr inbounds [105 x i32], [105 x i32]* %56, i64 0, i64 %59
  %61 = load i32, i32* %60, align 4
  %62 = add nsw i32 %52, %61
  %63 = srem i32 %62, 10
  %64 = load i32, i32* %4, align 4
  %65 = add nsw i32 %64, 1
  %66 = sext i32 %65 to i64
  %67 = getelementptr inbounds [105 x [105 x i32]], [105 x [105 x i32]]* @a, i64 0, i64 %66
  %68 = load i32, i32* %5, align 4
  %69 = add nsw i32 %68, 1
  %70 = sext i32 %69 to i64
  %71 = getelementptr inbounds [105 x i32], [105 x i32]* %67, i64 0, i64 %70
  store i32 %63, i32* %71, align 4
  br label %72

72:                                               ; preds = %18
  %73 = load i32, i32* %5, align 4
  %74 = add nsw i32 %73, 1
  store i32 %74, i32* %5, align 4
  br label %14

75:                                               ; preds = %14
  br label %76

76:                                               ; preds = %75
  %77 = load i32, i32* %4, align 4
  %78 = add nsw i32 %77, 1
  store i32 %78, i32* %4, align 4
  br label %8

79:                                               ; preds = %8
  %80 = load i32, i32* %2, align 4
  store i32 %80, i32* %4, align 4
  br label %81

81:                                               ; preds = %96, %79
  %82 = load i32, i32* %4, align 4
  %83 = icmp sge i32 %82, 1
  br i1 %83, label %84, label %99

84:                                               ; preds = %81
  %85 = load i32, i32* %2, align 4
  %86 = sext i32 %85 to i64
  %87 = getelementptr inbounds [105 x [105 x i32]], [105 x [105 x i32]]* @a, i64 0, i64 %86
  %88 = load i32, i32* %4, align 4
  %89 = sext i32 %88 to i64
  %90 = getelementptr inbounds [105 x i32], [105 x i32]* %87, i64 0, i64 %89
  %91 = load i32, i32* %90, align 4
  %92 = icmp ne i32 %91, 0
  br i1 %92, label %93, label %95

93:                                               ; preds = %84
  store i32 1, i32* %6, align 4
  %94 = load i32, i32* %4, align 4
  store i32 %94, i32* %3, align 4
  br label %99

95:                                               ; preds = %84
  br label %96

96:                                               ; preds = %95
  %97 = load i32, i32* %4, align 4
  %98 = add nsw i32 %97, -1
  store i32 %98, i32* %4, align 4
  br label %81

99:                                               ; preds = %93, %81
  %100 = load i32, i32* %3, align 4
  store i32 %100, i32* %4, align 4
  br label %101

101:                                              ; preds = %113, %99
  %102 = load i32, i32* %4, align 4
  %103 = icmp sge i32 %102, 1
  br i1 %103, label %104, label %116

104:                                              ; preds = %101
  %105 = load i32, i32* %2, align 4
  %106 = sext i32 %105 to i64
  %107 = getelementptr inbounds [105 x [105 x i32]], [105 x [105 x i32]]* @a, i64 0, i64 %106
  %108 = load i32, i32* %4, align 4
  %109 = sext i32 %108 to i64
  %110 = getelementptr inbounds [105 x i32], [105 x i32]* %107, i64 0, i64 %109
  %111 = load i32, i32* %110, align 4
  %112 = call i32 (i8*, ...) @printf(i8* getelementptr inbounds ([3 x i8], [3 x i8]* @.str, i64 0, i64 0), i32 %111)
  br label %113

113:                                              ; preds = %104
  %114 = load i32, i32* %4, align 4
  %115 = add nsw i32 %114, -1
  store i32 %115, i32* %4, align 4
  br label %101

116:                                              ; preds = %101
  %117 = load i32, i32* %2, align 4
  %118 = icmp eq i32 %117, 0
  br i1 %118, label %119, label %121

119:                                              ; preds = %116
  %120 = call i32 (i8*, ...) @printf(i8* getelementptr inbounds ([3 x i8], [3 x i8]* @.str.1, i64 0, i64 0))
  br label %121

121:                                              ; preds = %119, %116
  ret i32 0
}

declare dso_local dereferenceable(280) %"class.std::basic_istream"* @_ZNSirsERi(%"class.std::basic_istream"*, i32* dereferenceable(4)) #1

declare dso_local i32 @printf(i8*, ...) #1

; Function Attrs: noinline uwtable
define internal void @_GLOBAL__sub_I_527.cpp() #0 section ".text.startup" {
  call void @__cxx_global_var_init()
  ret void
}


!llvm.module.flags = !{!0}
!llvm.ident = !{!1}

!0 = !{i32 1, !"wchar_size", i32 4}
!1 = !{!"clang version 10.0.0-4ubuntu1 "}
