; ModuleID = 'source-C-CXX/24/527.cpp'
source_filename = "source-C-CXX/24/527.cpp"
target datalayout = "e-m:e-p270:32:32-p271:32:32-p272:64:64-i64:64-f80:128-n8:16:32:64-S128"
target triple = "x86_64-pc-linux-gnu"

%"class.std::ios_base::Init" = type { i8 }
%"class.std::basic_istream" = type { i32 (...)**, i64, %"class.std::basic_ios" }
%"class.std::basic_ios" = type { %"class.std::ios_base", %"class.std::basic_ostream"*, i8, i8, %"class.std::basic_streambuf"*, %"class.std::ctype"*, %"class.std::num_put"*, %"class.std::num_get"* }
%"class.std::ios_base" = type { i32 (...)**, i64, i64, i32, i32, i32, %"struct.std::ios_base::_Callback_list"*, %"struct.std::ios_base::_Words", [8 x %"struct.std::ios_base::_Words"], i32, %"struct.std::ios_base::_Words"*, %"class.std::locale" }
%"struct.std::ios_base::_Callback_list" = type { %"struct.std::ios_base::_Callback_list"*, void (i32, %"class.std::ios_base"*, i32)*, i32, i32 }
%"struct.std::ios_base::_Words" = type { i8*, i64 }
%"class.std::locale" = type { %"class.std::locale::_Impl"* }
%"class.std::locale::_Impl" = type { i32, %"class.std::locale::facet"**, i64, %"class.std::locale::facet"**, i8** }
%"class.std::locale::facet" = type <{ i32 (...)**, i32, [4 x i8] }>
%"class.std::basic_ostream" = type { i32 (...)**, %"class.std::basic_ios" }
%"class.std::basic_streambuf" = type { i32 (...)**, i8*, i8*, i8*, i8*, i8*, i8*, %"class.std::locale" }
%"class.std::ctype" = type <{ %"class.std::locale::facet.base", [4 x i8], %struct.__locale_struct*, i8, [7 x i8], i32*, i32*, i16*, i8, [256 x i8], [256 x i8], i8, [6 x i8] }>
%"class.std::locale::facet.base" = type <{ i32 (...)**, i32 }>
%struct.__locale_struct = type { [13 x %struct.__locale_data*], i16*, i32*, i32*, [13 x i8*] }
%struct.__locale_data = type opaque
%"class.std::num_put" = type { %"class.std::locale::facet.base", [4 x i8] }
%"class.std::num_get" = type { %"class.std::locale::facet.base", [4 x i8] }

@_ZStL8__ioinit = internal global %"class.std::ios_base::Init" zeroinitializer, align 1
@__dso_handle = external hidden global i8
@a = dso_local local_unnamed_addr global [105 x [105 x i32]] zeroinitializer, align 16
@_ZSt3cin = external global %"class.std::basic_istream", align 8
@.str = private unnamed_addr constant [3 x i8] c"%d\00", align 1
@llvm.global_ctors = appending global [1 x { i32, void ()*, i8* }] [{ i32, void ()*, i8* } { i32 65535, void ()* @_GLOBAL__sub_I_527.cpp, i8* null }]
@str = private unnamed_addr constant [2 x i8] c"1\00", align 1

declare void @_ZNSt8ios_base4InitC1Ev(%"class.std::ios_base::Init"* nonnull align 1 dereferenceable(1)) unnamed_addr #0

; Function Attrs: nounwind
declare void @_ZNSt8ios_base4InitD1Ev(%"class.std::ios_base::Init"* nonnull align 1 dereferenceable(1)) unnamed_addr #1

; Function Attrs: nofree nounwind
declare i32 @__cxa_atexit(void (i8*)*, i8*, i8*) local_unnamed_addr #2

; Function Attrs: mustprogress norecurse sspstrong uwtable
define dso_local i32 @main() local_unnamed_addr #3 {
  %1 = alloca i32, align 4
  %2 = bitcast i32* %1 to i8*
  call void @llvm.lifetime.start.p0i8(i64 4, i8* nonnull %2) #7
  %3 = call nonnull align 8 dereferenceable(16) %"class.std::basic_istream"* @_ZNSirsERi(%"class.std::basic_istream"* nonnull align 8 dereferenceable(16) @_ZSt3cin, i32* nonnull align 4 dereferenceable(4) %1)
  store i32 2, i32* getelementptr inbounds ([105 x [105 x i32]], [105 x [105 x i32]]* @a, i64 0, i64 1, i64 1), align 8, !tbaa !5
  %4 = load i32, i32* %1, align 4, !tbaa !5
  %5 = icmp sgt i32 %4, 1
  br i1 %5, label %6, label %15

6:                                                ; preds = %0
  %7 = add nuw i32 %4, 1
  %8 = zext i32 %4 to i64
  %9 = zext i32 %7 to i64
  br label %10

10:                                               ; preds = %6, %34
  %11 = phi i64 [ 1, %6 ], [ %12, %34 ]
  %12 = add nuw nsw i64 %11, 1
  %13 = getelementptr inbounds [105 x [105 x i32]], [105 x [105 x i32]]* @a, i64 0, i64 %12, i64 1
  %14 = load i32, i32* %13, align 4, !tbaa !5
  br label %18

15:                                               ; preds = %34, %0
  %16 = sext i32 %4 to i64
  %17 = icmp sgt i32 %4, 0
  br i1 %17, label %36, label %63

18:                                               ; preds = %10, %18
  %19 = phi i32 [ %14, %10 ], [ %32, %18 ]
  %20 = phi i64 [ 1, %10 ], [ %28, %18 ]
  %21 = getelementptr inbounds [105 x [105 x i32]], [105 x [105 x i32]]* @a, i64 0, i64 %11, i64 %20
  %22 = load i32, i32* %21, align 4, !tbaa !5
  %23 = shl nsw i32 %22, 1
  %24 = getelementptr inbounds [105 x [105 x i32]], [105 x [105 x i32]]* @a, i64 0, i64 %12, i64 %20
  %25 = add nsw i32 %23, %19
  %26 = srem i32 %25, 10
  store i32 %26, i32* %24, align 4, !tbaa !5
  %27 = sdiv i32 %22, 5
  %28 = add nuw nsw i64 %20, 1
  %29 = getelementptr inbounds [105 x [105 x i32]], [105 x [105 x i32]]* @a, i64 0, i64 %12, i64 %28
  %30 = load i32, i32* %29, align 4, !tbaa !5
  %31 = add nsw i32 %30, %27
  %32 = srem i32 %31, 10
  store i32 %32, i32* %29, align 4, !tbaa !5
  %33 = icmp eq i64 %28, %9
  br i1 %33, label %34, label %18, !llvm.loop !9

34:                                               ; preds = %18
  %35 = icmp eq i64 %12, %8
  br i1 %35, label %15, label %10, !llvm.loop !11

36:                                               ; preds = %15, %42
  %37 = phi i32 [ %43, %42 ], [ %4, %15 ]
  %38 = zext i32 %37 to i64
  %39 = getelementptr inbounds [105 x [105 x i32]], [105 x [105 x i32]]* @a, i64 0, i64 %16, i64 %38
  %40 = load i32, i32* %39, align 4, !tbaa !5
  %41 = icmp eq i32 %40, 0
  br i1 %41, label %42, label %45

42:                                               ; preds = %36
  %43 = add nsw i32 %37, -1
  %44 = icmp sgt i32 %37, 1
  br i1 %44, label %36, label %63, !llvm.loop !12

45:                                               ; preds = %36
  %46 = zext i32 %37 to i64
  %47 = sext i32 %4 to i64
  %48 = getelementptr inbounds [105 x [105 x i32]], [105 x [105 x i32]]* @a, i64 0, i64 %47, i64 %46
  %49 = load i32, i32* %48, align 4, !tbaa !5
  %50 = call i32 (i8*, ...) @printf(i8* nonnull dereferenceable(1) getelementptr inbounds ([3 x i8], [3 x i8]* @.str, i64 0, i64 0), i32 %49)
  %51 = icmp ugt i32 %37, 1
  br i1 %51, label %52, label %61, !llvm.loop !13

52:                                               ; preds = %45, %52
  %53 = phi i64 [ %54, %52 ], [ %46, %45 ]
  %54 = add nsw i64 %53, -1
  %55 = load i32, i32* %1, align 4, !tbaa !5
  %56 = sext i32 %55 to i64
  %57 = getelementptr inbounds [105 x [105 x i32]], [105 x [105 x i32]]* @a, i64 0, i64 %56, i64 %54
  %58 = load i32, i32* %57, align 4, !tbaa !5
  %59 = call i32 (i8*, ...) @printf(i8* nonnull dereferenceable(1) getelementptr inbounds ([3 x i8], [3 x i8]* @.str, i64 0, i64 0), i32 %58)
  %60 = icmp sgt i64 %53, 2
  br i1 %60, label %52, label %61, !llvm.loop !13

61:                                               ; preds = %52, %45
  %62 = load i32, i32* %1, align 4, !tbaa !5
  br label %63

63:                                               ; preds = %42, %15, %61
  %64 = phi i32 [ %62, %61 ], [ %4, %15 ], [ 1, %42 ]
  %65 = icmp eq i32 %64, 0
  br i1 %65, label %66, label %68

66:                                               ; preds = %63
  %67 = call i32 @puts(i8* nonnull dereferenceable(1) getelementptr inbounds ([2 x i8], [2 x i8]* @str, i64 0, i64 0))
  br label %68

68:                                               ; preds = %66, %63
  call void @llvm.lifetime.end.p0i8(i64 4, i8* nonnull %2) #7
  ret i32 0
}

; Function Attrs: argmemonly mustprogress nofree nosync nounwind willreturn
declare void @llvm.lifetime.start.p0i8(i64 immarg, i8* nocapture) #4

declare nonnull align 8 dereferenceable(16) %"class.std::basic_istream"* @_ZNSirsERi(%"class.std::basic_istream"* nonnull align 8 dereferenceable(16), i32* nonnull align 4 dereferenceable(4)) local_unnamed_addr #0

; Function Attrs: nofree nounwind
declare noundef i32 @printf(i8* nocapture noundef readonly, ...) local_unnamed_addr #5

; Function Attrs: argmemonly mustprogress nofree nosync nounwind willreturn
declare void @llvm.lifetime.end.p0i8(i64 immarg, i8* nocapture) #4

; Function Attrs: sspstrong uwtable
define internal void @_GLOBAL__sub_I_527.cpp() #6 section ".text.startup" {
  tail call void @_ZNSt8ios_base4InitC1Ev(%"class.std::ios_base::Init"* nonnull align 1 dereferenceable(1) @_ZStL8__ioinit)
  %1 = tail call i32 @__cxa_atexit(void (i8*)* bitcast (void (%"class.std::ios_base::Init"*)* @_ZNSt8ios_base4InitD1Ev to void (i8*)*), i8* getelementptr inbounds (%"class.std::ios_base::Init", %"class.std::ios_base::Init"* @_ZStL8__ioinit, i64 0, i32 0), i8* nonnull @__dso_handle) #7
  ret void
}

; Function Attrs: nofree nounwind
declare noundef i32 @puts(i8* nocapture noundef readonly) local_unnamed_addr #2


!llvm.module.flags = !{!0, !1, !2, !3}
!llvm.ident = !{!4}

!0 = !{i32 1, !"wchar_size", i32 4}
!1 = !{i32 7, !"PIC Level", i32 2}
!2 = !{i32 7, !"PIE Level", i32 2}
!3 = !{i32 7, !"uwtable", i32 1}
!4 = !{!"clang version 13.0.0"}
!5 = !{!6, !6, i64 0}
!6 = !{!"int", !7, i64 0}
!7 = !{!"omnipotent char", !8, i64 0}
!8 = !{!"Simple C++ TBAA"}
!9 = distinct !{!9, !10}
!10 = !{!"llvm.loop.mustprogress"}
!11 = distinct !{!11, !10}
!12 = distinct !{!12, !10}
!13 = distinct !{!13, !10}
